target datalayout = "e-m:e-p270:32:32-p271:32:32-p272:64:64-i64:64-i128:128-f80:128-n8:16:32:64-S128"
target triple = "x86_64-pc-linux-gnu"

%struct.ssl_st = type { i32, i16, i16, ptr, ptr, ptr, ptr, ptr, i32, i32, ptr, ptr, i32, i32, ptr, ptr, ptr, ptr, ptr, ptr, ptr, ptr, i32, i32, [32 x i8], ptr, ptr, ptr, ptr, ptr, ptr, ptr, i64, %struct.crypto_ex_data_st, ptr, i32, i32, i32, i32, i16, ptr, i32, i64, ptr, ptr, ptr, ptr, ptr, ptr, i32, i32, ptr, ptr, i8, i8, i32 }
%struct.crypto_ex_data_st = type { ptr }
%struct.cbb_st = type { ptr, ptr, i64, i8, i8, i8 }
%struct.srtp_protection_profile_st = type { ptr, i64 }

; Function Attrs: nounwind uwtable
define internal i32 @ext_srtp_add_serverhello(ptr noundef %0, ptr noundef %1) #0 {
  %3 = alloca i32, align 4
  %4 = alloca ptr, align 8
  %5 = alloca ptr, align 8
  %6 = alloca %struct.cbb_st, align 8
  %7 = alloca %struct.cbb_st, align 8
  %8 = alloca i32, align 4
  store ptr %0, ptr %4, align 8, !tbaa !69
  store ptr %1, ptr %5, align 8, !tbaa !128
  %9 = load ptr, ptr %4, align 8, !tbaa !69
  %10 = getelementptr inbounds nuw %struct.ssl_st, ptr %9, i32 0, i32 46
  %11 = load ptr, ptr %10, align 8, !tbaa !209
  %12 = icmp eq ptr %11, null
  br i1 %12, label %13, label %14

13:                                               ; preds = %2
  store i32 1, ptr %3, align 4
  br label %44

14:                                               ; preds = %2
  call void @llvm.lifetime.start.p0(i64 32, ptr %6) #8
  call void @llvm.lifetime.start.p0(i64 32, ptr %7) #8
  %15 = load ptr, ptr %5, align 8, !tbaa !128
  %16 = call i32 @CBB_add_u16(ptr noundef %15, i16 noundef zeroext 14)
  %17 = icmp ne i32 %16, 0
  br i1 %17, label %18, label %41

18:                                               ; preds = %14
  %19 = load ptr, ptr %5, align 8, !tbaa !128
  %20 = call i32 @CBB_add_u16_length_prefixed(ptr noundef %19, ptr noundef %6)
  %21 = icmp ne i32 %20, 0
  br i1 %21, label %22, label %41

22:                                               ; preds = %18
  %23 = call i32 @CBB_add_u16_length_prefixed(ptr noundef %6, ptr noundef %7)
  %24 = icmp ne i32 %23, 0
  br i1 %24, label %25, label %41

25:                                               ; preds = %22
  %26 = load ptr, ptr %4, align 8, !tbaa !69
  %27 = getelementptr inbounds nuw %struct.ssl_st, ptr %26, i32 0, i32 46
  %28 = load ptr, ptr %27, align 8, !tbaa !209
  %29 = getelementptr inbounds nuw %struct.srtp_protection_profile_st, ptr %28, i32 0, i32 1
  %30 = load i64, ptr %29, align 8, !tbaa !211
  %31 = trunc i64 %30 to i16
  %32 = call i32 @CBB_add_u16(ptr noundef %7, i16 noundef zeroext %31)
  %33 = icmp ne i32 %32, 0
  br i1 %33, label %34, label %41

34:                                               ; preds = %25
  %35 = call i32 @CBB_add_u8(ptr noundef %6, i8 noundef zeroext 0)
  %36 = icmp ne i32 %35, 0
  br i1 %36, label %37, label %41

37:                                               ; preds = %34
  %38 = load ptr, ptr %5, align 8, !tbaa !128
  %39 = call i32 @CBB_flush(ptr noundef %38)
  %40 = icmp ne i32 %39, 0
  br i1 %40, label %42, label %41

41:                                               ; preds = %37, %34, %25, %22, %18, %14
  store i32 0, ptr %3, align 4
  store i32 1, ptr %8, align 4
  br label %43

42:                                               ; preds = %37
  store i32 1, ptr %3, align 4
  store i32 1, ptr %8, align 4
  br label %43

43:                                               ; preds = %42, %41
  call void @llvm.lifetime.end.p0(i64 32, ptr %7) #8
  call void @llvm.lifetime.end.p0(i64 32, ptr %6) #8
  br label %44

44:                                               ; preds = %43, %13
  %45 = load i32, ptr %3, align 4
  ret i32 %45
}