; Function Attrs: nounwind uwtable
define internal range(i32 0, 2) i32 @ext_srtp_add_serverhello(ptr noundef readonly captures(none) %0, ptr noundef %1) #0 {
  %3 = alloca %struct.cbb_st, align 8
  %4 = alloca %struct.cbb_st, align 8
  %5 = getelementptr inbounds nuw i8, ptr %0, i64 336
  %6 = load ptr, ptr %5, align 8, !tbaa !178
  %7 = icmp eq ptr %6, null
  br i1 %7, label %25, label %8

8:                                                ; preds = %2
  call void @llvm.lifetime.start.p0(i64 32, ptr nonnull %3) #21
  call void @llvm.lifetime.start.p0(i64 32, ptr nonnull %4) #21
  %9 = tail call i32 @CBB_add_u16(ptr noundef %1, i16 noundef zeroext 14) #21
  %.not = icmp eq i32 %9, 0
  br i1 %.not, label %24, label %10

10:                                               ; preds = %8
  %11 = call i32 @CBB_add_u16_length_prefixed(ptr noundef %1, ptr noundef nonnull %3) #21
  %.not5 = icmp eq i32 %11, 0
  br i1 %.not5, label %24, label %12

12:                                               ; preds = %10
  %13 = call i32 @CBB_add_u16_length_prefixed(ptr noundef nonnull %3, ptr noundef nonnull %4) #21
  %.not6 = icmp eq i32 %13, 0
  br i1 %.not6, label %24, label %14

14:                                               ; preds = %12
  %15 = load ptr, ptr %5, align 8, !tbaa !178
  %16 = getelementptr inbounds nuw i8, ptr %15, i64 8
  %17 = load i64, ptr %16, align 8, !tbaa !180
  %18 = trunc i64 %17 to i16
  %19 = call i32 @CBB_add_u16(ptr noundef nonnull %4, i16 noundef zeroext %18) #21
  %.not7 = icmp eq i32 %19, 0
  br i1 %.not7, label %24, label %20

20:                                               ; preds = %14
  %21 = call i32 @CBB_add_u8(ptr noundef nonnull %3, i8 noundef zeroext 0) #21
  %.not8 = icmp eq i32 %21, 0
  br i1 %.not8, label %24, label %22

22:                                               ; preds = %20
  %23 = call i32 @CBB_flush(ptr noundef %1) #21
  %.not9 = icmp ne i32 %23, 0
  %spec.select = zext i1 %.not9 to i32
  br label %24

24:                                               ; preds = %22, %8, %10, %12, %14, %20
  %.1 = phi i32 [ 0, %20 ], [ 0, %14 ], [ 0, %12 ], [ 0, %10 ], [ 0, %8 ], [ %spec.select, %22 ]
  call void @llvm.lifetime.end.p0(i64 32, ptr nonnull %4) #21
  call void @llvm.lifetime.end.p0(i64 32, ptr nonnull %3) #21
  br label %25

25:                                               ; preds = %2, %24
  %.0 = phi i32 [ %.1, %24 ], [ 1, %2 ]
  ret i32 %.0
}